	.file	"HeaderDemo.cpp"
	.text
	.section	.text$_Z6printfPKcz,"x"
	.linkonce discard
	.globl	_Z6printfPKcz
	.def	_Z6printfPKcz;	.scl	2;	.type	32;	.endef
	.seh_proc	_Z6printfPKcz
_Z6printfPKcz:
.LFB8:
	pushq	%rbp
	.seh_pushreg	%rbp
	pushq	%rbx
	.seh_pushreg	%rbx
	subq	$56, %rsp
	.seh_stackalloc	56
	leaq	48(%rsp), %rbp
	.seh_setframe	%rbp, 48
	.seh_endprologue
	movq	%rcx, 32(%rbp)
	movq	%rdx, 40(%rbp)
	movq	%r8, 48(%rbp)
	movq	%r9, 56(%rbp)
	leaq	40(%rbp), %rax
	movq	%rax, -16(%rbp)
	movq	-16(%rbp), %rbx
	movl	$1, %ecx
	movq	__imp___acrt_iob_func(%rip), %rax
	call	*%rax
	movq	%rax, %rcx
	movq	32(%rbp), %rax
	movq	%rbx, %r8
	movq	%rax, %rdx
	call	__mingw_vfprintf
	movl	%eax, -4(%rbp)
	movl	-4(%rbp), %eax
	addq	$56, %rsp
	popq	%rbx
	popq	%rbp
	ret
	.seh_endproc
	.def	__main;	.scl	2;	.type	32;	.endef
	.section .rdata,"dr"
.LC2:
	.ascii "Area is : %f\12\0"
.LC3:
	.ascii "Value of no is : %d\12\0"
	.text
	.globl	main
	.def	main;	.scl	2;	.type	32;	.endef
	.seh_proc	main
main:
.LFB44:
	pushq	%rbp
	.seh_pushreg	%rbp
	movq	%rsp, %rbp
	.seh_setframe	%rbp, 0
	subq	$64, %rsp
	.seh_stackalloc	64
	.seh_endprologue
	call	__main
	movl	$11, -28(%rbp)
	movss	.LC0(%rip), %xmm0
	movss	%xmm0, -4(%rbp)
	pxor	%xmm1, %xmm1
	cvtss2sd	-4(%rbp), %xmm1
	movsd	.LC1(%rip), %xmm0
	mulsd	%xmm0, %xmm1
	pxor	%xmm0, %xmm0
	cvtss2sd	-4(%rbp), %xmm0
	mulsd	%xmm1, %xmm0
	cvtsd2ss	%xmm0, %xmm0
	movss	%xmm0, -8(%rbp)
	leaq	-28(%rbp), %rax
	movq	%rax, -16(%rbp)
	pxor	%xmm0, %xmm0
	cvtss2sd	-8(%rbp), %xmm0
	movq	%xmm0, %rax
	movq	%rax, %rdx
	movq	%rdx, %xmm0
	movapd	%xmm0, %xmm1
	movq	%rax, %rdx
	leaq	.LC2(%rip), %rax
	movq	%rax, %rcx
	call	_Z6printfPKcz
	movq	-16(%rbp), %rax
	movl	(%rax), %eax
	movl	%eax, %edx
	leaq	.LC3(%rip), %rax
	movq	%rax, %rcx
	call	_Z6printfPKcz
	movl	$0, %eax
	addq	$64, %rsp
	popq	%rbp
	ret
	.seh_endproc
	.section .rdata,"dr"
	.align 4
.LC0:
	.long	1106562253
	.align 8
.LC1:
	.long	1374389535
	.long	1074339512
	.ident	"GCC: (Rev2, Built by MSYS2 project) 12.1.0"
	.def	__mingw_vfprintf;	.scl	2;	.type	32;	.endef
